; ModuleID = '31/1862.c'
source_filename = "31/1862.c"
target datalayout = "e-m:e-p270:32:32-p271:32:32-p272:64:64-i64:64-f80:128-n8:16:32:64-S128"
target triple = "x86_64-pc-linux-gnu"

%struct.stu = type { [10 x i8], [20 x i8], i8, i32, [6 x float], [10 x i8], %struct.stu* }

@n = common dso_local global i32 0, align 4
@.str = private unnamed_addr constant [3 x i8] c"%s\00", align 1
@.str.1 = private unnamed_addr constant [4 x i8] c"end\00", align 1
@.str.2 = private unnamed_addr constant [19 x i8] c"%s %s %c %d %s %s\0A\00", align 1

; Function Attrs: noinline nounwind uwtable
define dso_local %struct.stu* @creat() #0 {
  %1 = alloca %struct.stu*, align 8
  %2 = alloca %struct.stu*, align 8
  %3 = alloca %struct.stu*, align 8
  %4 = alloca %struct.stu*, align 8
  store i32 0, i32* @n, align 4
  %5 = call noalias i8* @malloc(i64 80) #4
  %6 = bitcast i8* %5 to %struct.stu*
  store %struct.stu* %6, %struct.stu** %4, align 8
  store %struct.stu* %6, %struct.stu** %3, align 8
  %7 = load %struct.stu*, %struct.stu** %3, align 8
  %8 = getelementptr inbounds %struct.stu, %struct.stu* %7, i32 0, i32 0
  %9 = getelementptr inbounds [10 x i8], [10 x i8]* %8, i64 0, i64 0
  %10 = call i32 (i8*, ...) @__isoc99_scanf(i8* getelementptr inbounds ([3 x i8], [3 x i8]* @.str, i64 0, i64 0), i8* %9)
  %11 = load %struct.stu*, %struct.stu** %3, align 8
  %12 = getelementptr inbounds %struct.stu, %struct.stu* %11, i32 0, i32 0
  %13 = getelementptr inbounds [10 x i8], [10 x i8]* %12, i64 0, i64 0
  %14 = call i32 @strcmp(i8* %13, i8* getelementptr inbounds ([4 x i8], [4 x i8]* @.str.1, i64 0, i64 0)) #5
  %15 = icmp eq i32 %14, 0
  br i1 %15, label %16, label %20

16:                                               ; preds = %0
  %17 = load %struct.stu*, %struct.stu** %3, align 8
  %18 = bitcast %struct.stu* %17 to i8*
  call void @free(i8* %18) #4
  store %struct.stu* null, %struct.stu** %2, align 8
  %19 = load %struct.stu*, %struct.stu** %2, align 8
  store %struct.stu* %19, %struct.stu** %1, align 8
  br label %78

20:                                               ; preds = %0
  %21 = load %struct.stu*, %struct.stu** %3, align 8
  %22 = getelementptr inbounds %struct.stu, %struct.stu* %21, i32 0, i32 1
  %23 = getelementptr inbounds [20 x i8], [20 x i8]* %22, i64 0, i64 0
  %24 = load %struct.stu*, %struct.stu** %3, align 8
  %25 = getelementptr inbounds %struct.stu, %struct.stu* %24, i32 0, i32 2
  %26 = load %struct.stu*, %struct.stu** %3, align 8
  %27 = getelementptr inbounds %struct.stu, %struct.stu* %26, i32 0, i32 3
  %28 = load %struct.stu*, %struct.stu** %3, align 8
  %29 = getelementptr inbounds %struct.stu, %struct.stu* %28, i32 0, i32 4
  %30 = getelementptr inbounds [6 x float], [6 x float]* %29, i64 0, i64 0
  %31 = load %struct.stu*, %struct.stu** %3, align 8
  %32 = getelementptr inbounds %struct.stu, %struct.stu* %31, i32 0, i32 5
  %33 = getelementptr inbounds [10 x i8], [10 x i8]* %32, i64 0, i64 0
  %34 = call i32 (i8*, ...) @__isoc99_scanf(i8* inttoptr (i64 100 to i8*), i8* %23, i8* %25, i32* %27, float* %30, i8* %33)
  %35 = load %struct.stu*, %struct.stu** %3, align 8
  store %struct.stu* %35, %struct.stu** %2, align 8
  %36 = load %struct.stu*, %struct.stu** %3, align 8
  store %struct.stu* %36, %struct.stu** %4, align 8
  %37 = load %struct.stu*, %struct.stu** %3, align 8
  %38 = getelementptr inbounds %struct.stu, %struct.stu* %37, i32 0, i32 6
  store %struct.stu* null, %struct.stu** %38, align 8
  br label %39

39:                                               ; preds = %75, %20
  %40 = call noalias i8* @malloc(i64 80) #4
  %41 = bitcast i8* %40 to %struct.stu*
  store %struct.stu* %41, %struct.stu** %3, align 8
  %42 = load %struct.stu*, %struct.stu** %3, align 8
  %43 = getelementptr inbounds %struct.stu, %struct.stu* %42, i32 0, i32 0
  %44 = getelementptr inbounds [10 x i8], [10 x i8]* %43, i64 0, i64 0
  %45 = call i32 (i8*, ...) @__isoc99_scanf(i8* getelementptr inbounds ([3 x i8], [3 x i8]* @.str, i64 0, i64 0), i8* %44)
  %46 = load %struct.stu*, %struct.stu** %3, align 8
  %47 = getelementptr inbounds %struct.stu, %struct.stu* %46, i32 0, i32 0
  %48 = getelementptr inbounds [10 x i8], [10 x i8]* %47, i64 0, i64 0
  %49 = call i32 @strcmp(i8* %48, i8* getelementptr inbounds ([4 x i8], [4 x i8]* @.str.1, i64 0, i64 0)) #5
  %50 = icmp eq i32 %49, 0
  br i1 %50, label %51, label %54

51:                                               ; preds = %39
  %52 = load %struct.stu*, %struct.stu** %3, align 8
  %53 = bitcast %struct.stu* %52 to i8*
  call void @free(i8* %53) #4
  br label %76

54:                                               ; preds = %39
  %55 = load %struct.stu*, %struct.stu** %3, align 8
  %56 = getelementptr inbounds %struct.stu, %struct.stu* %55, i32 0, i32 1
  %57 = getelementptr inbounds [20 x i8], [20 x i8]* %56, i64 0, i64 0
  %58 = load %struct.stu*, %struct.stu** %3, align 8
  %59 = getelementptr inbounds %struct.stu, %struct.stu* %58, i32 0, i32 2
  %60 = load %struct.stu*, %struct.stu** %3, align 8
  %61 = getelementptr inbounds %struct.stu, %struct.stu* %60, i32 0, i32 3
  %62 = load %struct.stu*, %struct.stu** %3, align 8
  %63 = getelementptr inbounds %struct.stu, %struct.stu* %62, i32 0, i32 4
  %64 = getelementptr inbounds [6 x float], [6 x float]* %63, i64 0, i64 0
  %65 = load %struct.stu*, %struct.stu** %3, align 8
  %66 = getelementptr inbounds %struct.stu, %struct.stu* %65, i32 0, i32 5
  %67 = getelementptr inbounds [10 x i8], [10 x i8]* %66, i64 0, i64 0
  %68 = call i32 (i8*, ...) @__isoc99_scanf(i8* inttoptr (i64 100 to i8*), i8* %57, i8* %59, i32* %61, float* %64, i8* %67)
  %69 = load %struct.stu*, %struct.stu** %3, align 8
  store %struct.stu* %69, %struct.stu** %2, align 8
  %70 = load %struct.stu*, %struct.stu** %4, align 8
  %71 = load %struct.stu*, %struct.stu** %3, align 8
  %72 = getelementptr inbounds %struct.stu, %struct.stu* %71, i32 0, i32 6
  store %struct.stu* %70, %struct.stu** %72, align 8
  %73 = load %struct.stu*, %struct.stu** %3, align 8
  store %struct.stu* %73, %struct.stu** %4, align 8
  br label %74

74:                                               ; preds = %54
  br label %75

75:                                               ; preds = %74
  br i1 true, label %39, label %76

76:                                               ; preds = %75, %51
  %77 = load %struct.stu*, %struct.stu** %2, align 8
  store %struct.stu* %77, %struct.stu** %1, align 8
  br label %78

78:                                               ; preds = %76, %16
  %79 = load %struct.stu*, %struct.stu** %1, align 8
  ret %struct.stu* %79
}

; Function Attrs: nounwind
declare dso_local noalias i8* @malloc(i64) #1

declare dso_local i32 @__isoc99_scanf(i8*, ...) #2

; Function Attrs: nounwind readonly
declare dso_local i32 @strcmp(i8*, i8*) #3

; Function Attrs: nounwind
declare dso_local void @free(i8*) #1

; Function Attrs: noinline nounwind uwtable
define dso_local i32 @main() #0 {
  %1 = alloca i32, align 4
  %2 = alloca %struct.stu*, align 8
  %3 = alloca %struct.stu*, align 8
  store i32 0, i32* %1, align 4
  %4 = call %struct.stu* @creat()
  store %struct.stu* %4, %struct.stu** %2, align 8
  br label %5

5:                                                ; preds = %8, %0
  %6 = load %struct.stu*, %struct.stu** %2, align 8
  %7 = icmp ne %struct.stu* %6, null
  br i1 %7, label %8, label %32

8:                                                ; preds = %5
  %9 = load %struct.stu*, %struct.stu** %2, align 8
  %10 = getelementptr inbounds %struct.stu, %struct.stu* %9, i32 0, i32 0
  %11 = getelementptr inbounds [10 x i8], [10 x i8]* %10, i64 0, i64 0
  %12 = load %struct.stu*, %struct.stu** %2, align 8
  %13 = getelementptr inbounds %struct.stu, %struct.stu* %12, i32 0, i32 1
  %14 = getelementptr inbounds [20 x i8], [20 x i8]* %13, i64 0, i64 0
  %15 = load %struct.stu*, %struct.stu** %2, align 8
  %16 = getelementptr inbounds %struct.stu, %struct.stu* %15, i32 0, i32 2
  %17 = load i8, i8* %16, align 2
  %18 = sext i8 %17 to i32
  %19 = load %struct.stu*, %struct.stu** %2, align 8
  %20 = getelementptr inbounds %struct.stu, %struct.stu* %19, i32 0, i32 3
  %21 = load i32, i32* %20, align 8
  %22 = load %struct.stu*, %struct.stu** %2, align 8
  %23 = getelementptr inbounds %struct.stu, %struct.stu* %22, i32 0, i32 4
  %24 = getelementptr inbounds [6 x float], [6 x float]* %23, i64 0, i64 0
  %25 = load %struct.stu*, %struct.stu** %2, align 8
  %26 = getelementptr inbounds %struct.stu, %struct.stu* %25, i32 0, i32 5
  %27 = getelementptr inbounds [10 x i8], [10 x i8]* %26, i64 0, i64 0
  %28 = call i32 (i8*, ...) @printf(i8* getelementptr inbounds ([19 x i8], [19 x i8]* @.str.2, i64 0, i64 0), i8* %11, i8* %14, i32 %18, i32 %21, float* %24, i8* %27)
  %29 = load %struct.stu*, %struct.stu** %2, align 8
  %30 = getelementptr inbounds %struct.stu, %struct.stu* %29, i32 0, i32 6
  %31 = load %struct.stu*, %struct.stu** %30, align 8
  store %struct.stu* %31, %struct.stu** %2, align 8
  br label %5

32:                                               ; preds = %5
  %33 = load i32, i32* %1, align 4
  ret i32 %33
}

declare dso_local i32 @printf(i8*, ...) #2


!llvm.module.flags = !{!0}
!llvm.ident = !{!1}

!0 = !{i32 1, !"wchar_size", i32 4}
!1 = !{!"clang version 10.0.0-4ubuntu1 "}
